	.text
	.file	"example_compilation.c"
	.globl	main                            # -- Begin function main
	.p2align	4, 0x90
	.type	main,@function
main:                                   # @main
.Lfunc_begin0:
	.file	1 "/root/teaching/comp1521-25t3/t16a/tut01/examples" "example_compilation.c"
	.loc	1 3 0                           # example_compilation.c:3:0
	.cfi_startproc
# %bb.0:                                # %entry
	pushq	%rbp
	.cfi_def_cfa_offset 16
	.cfi_offset %rbp, -16
	movq	%rsp, %rbp
	.cfi_def_cfa_register %rbp
	subq	$16, %rsp
	movl	$0, -4(%rbp)
.Ltmp0:
	.loc	1 4 5 prologue_end              # example_compilation.c:4:5
	leaq	.str(%rip), %rdi
	movb	$0, %al
	callq	printf@PLT
	.loc	1 5 5                           # example_compilation.c:5:5
	xorl	%eax, %eax
	addq	$16, %rsp
	popq	%rbp
	.cfi_def_cfa %rsp, 8
	retq
.Ltmp1:
.Lfunc_end0:
	.size	main, .Lfunc_end0-main
	.cfi_endproc
                                        # -- End function
	.section	.text.asan.module_ctor,"axR",@progbits
	.p2align	4, 0x90                         # -- Begin function asan.module_ctor
	.type	asan.module_ctor,@function
asan.module_ctor:                       # @asan.module_ctor
.Lfunc_begin1:
	.cfi_startproc
# %bb.0:
	pushq	%rbp
	.cfi_def_cfa_offset 16
	.cfi_offset %rbp, -16
	movq	%rsp, %rbp
	.cfi_def_cfa_register %rbp
	callq	__asan_init@PLT
	callq	__asan_version_mismatch_check_v8@PLT
	leaq	__unnamed_1(%rip), %rdi
	movl	$1, %esi
	callq	__asan_register_globals@PLT
	popq	%rbp
	.cfi_def_cfa %rsp, 8
	retq
.Lfunc_end1:
	.size	asan.module_ctor, .Lfunc_end1-asan.module_ctor
	.cfi_endproc
                                        # -- End function
	.section	.text.asan.module_dtor,"axR",@progbits
	.p2align	4, 0x90                         # -- Begin function asan.module_dtor
	.type	asan.module_dtor,@function
asan.module_dtor:                       # @asan.module_dtor
.Lfunc_begin2:
	.cfi_startproc
# %bb.0:
	pushq	%rbp
	.cfi_def_cfa_offset 16
	.cfi_offset %rbp, -16
	movq	%rsp, %rbp
	.cfi_def_cfa_register %rbp
	leaq	__unnamed_1(%rip), %rdi
	movl	$1, %esi
	callq	__asan_unregister_globals@PLT
	popq	%rbp
	.cfi_def_cfa %rsp, 8
	retq
.Lfunc_end2:
	.size	asan.module_dtor, .Lfunc_end2-asan.module_dtor
	.cfi_endproc
                                        # -- End function
	.type	.str,@object                    # @.str
	.section	.rodata,"a",@progbits
	.p2align	5
.str:
	.asciz	"Hello world\n"
	.zero	19
	.size	.str, 32

	.type	.L___asan_gen_,@object          # @___asan_gen_
.L___asan_gen_:
	.asciz	"example_compilation.c"
	.size	.L___asan_gen_, 22

	.type	.L___asan_gen_.1,@object        # @___asan_gen_.1
	.section	.rodata.str1.1,"aMS",@progbits,1
.L___asan_gen_.1:
	.asciz	"<string literal>"
	.size	.L___asan_gen_.1, 17

	.type	.L___asan_gen_.2,@object        # @___asan_gen_.2
.L___asan_gen_.2:
	.asciz	"example_compilation.c"
	.size	.L___asan_gen_.2, 22

	.type	.L___asan_gen_.3,@object        # @___asan_gen_.3
	.section	.data.rel.ro,"aw",@progbits
	.p2align	3
.L___asan_gen_.3:
	.quad	.L___asan_gen_.2
	.long	4                               # 0x4
	.long	12                              # 0xc
	.size	.L___asan_gen_.3, 16

	.type	__unnamed_1,@object             # @0
	.data
	.p2align	4
__unnamed_1:
	.quad	.str
	.quad	13                              # 0xd
	.quad	32                              # 0x20
	.quad	.L___asan_gen_.1
	.quad	.L___asan_gen_
	.quad	0                               # 0x0
	.quad	.L___asan_gen_.3
	.quad	-1                              # 0xffffffffffffffff
	.size	__unnamed_1, 64

	.section	.init_array.1,"aw",@init_array
	.p2align	3
	.quad	asan.module_ctor
	.section	.fini_array.1,"aw",@fini_array
	.p2align	3
	.quad	asan.module_dtor
	.section	".note.GNU-stack","",@progbits
	.addrsig
	.addrsig_sym printf
	.addrsig_sym __asan_register_globals
	.addrsig_sym __asan_unregister_globals
	.addrsig_sym __asan_init
	.addrsig_sym asan.module_ctor
	.addrsig_sym __asan_version_mismatch_check_v8
	.addrsig_sym asan.module_dtor
	.addrsig_sym .str
	.addrsig_sym .L___asan_gen_
	.addrsig_sym __unnamed_1